target datalayout = "e-m:e-p270:32:32-p271:32:32-p272:64:64-i64:64-i128:128-f80:128-n8:16:32:64-S128"
target triple = "x86_64-pc-linux-gnu"

%"class.glslang::TPpContext::TokenStream::Token" = type { i32, i8, i64, %"class.std::__cxx11::basic_string" }
%"class.std::__cxx11::basic_string" = type { %"struct.std::__cxx11::basic_string<char, std::char_traits<char>, glslang::pool_allocator<char>>::_Alloc_hider", i64, %union.anon }
%"struct.std::__cxx11::basic_string<char, std::char_traits<char>, glslang::pool_allocator<char>>::_Alloc_hider" = type { %"class.glslang::pool_allocator", ptr }
%"class.glslang::pool_allocator" = type { ptr }
%union.anon = type { i64, [8 x i8] }
%"class.glslang::TPpContext::TokenStream" = type { %"class.glslang::TVector", i64 }
%"class.glslang::TVector" = type { %"class.std::vector" }
%"class.std::vector" = type { %"struct.std::_Vector_base" }
%"struct.std::_Vector_base" = type { %"struct.std::_Vector_base<glslang::TPpContext::TokenStream::Token, glslang::pool_allocator<glslang::TPpContext::TokenStream::Token>>::_Vector_impl" }
%"struct.std::_Vector_base<glslang::TPpContext::TokenStream::Token, glslang::pool_allocator<glslang::TPpContext::TokenStream::Token>>::_Vector_impl" = type { %"class.glslang::pool_allocator.1", %"struct.std::_Vector_base<glslang::TPpContext::TokenStream::Token, glslang::pool_allocator<glslang::TPpContext::TokenStream::Token>>::_Vector_impl_data" }
%"class.glslang::pool_allocator.1" = type { ptr }
%"struct.std::_Vector_base<glslang::TPpContext::TokenStream::Token, glslang::pool_allocator<glslang::TPpContext::TokenStream::Token>>::_Vector_impl_data" = type { ptr, ptr, ptr }

; Function Attrs: mustprogress nounwind uwtable
define linkonce_odr noundef i64 @_ZNKSt6vectorIN7glslang10TPpContext11TokenStream5TokenENS0_14pool_allocatorIS3_EEE4sizeEv(ptr noundef nonnull align 8 dereferenceable(32) %0) #0 comdat align 2 {
  %2 = alloca ptr, align 8
  store ptr %0, ptr %2, align 8
  %3 = load ptr, ptr %2, align 8
  %4 = getelementptr inbounds %"struct.std::_Vector_base", ptr %3, i32 0, i32 0
  %5 = getelementptr inbounds i8, ptr %4, i64 8
  %6 = getelementptr inbounds %"struct.std::_Vector_base<glslang::TPpContext::TokenStream::Token, glslang::pool_allocator<glslang::TPpContext::TokenStream::Token>>::_Vector_impl_data", ptr %5, i32 0, i32 1
  %7 = load ptr, ptr %6, align 8
  %8 = getelementptr inbounds %"struct.std::_Vector_base", ptr %3, i32 0, i32 0
  %9 = getelementptr inbounds i8, ptr %8, i64 8
  %10 = getelementptr inbounds %"struct.std::_Vector_base<glslang::TPpContext::TokenStream::Token, glslang::pool_allocator<glslang::TPpContext::TokenStream::Token>>::_Vector_impl_data", ptr %9, i32 0, i32 0
  %11 = load ptr, ptr %10, align 8
  %12 = ptrtoint ptr %7 to i64
  %13 = ptrtoint ptr %11 to i64
  %14 = sub i64 %12, %13
  %15 = sdiv exact i64 %14, 56
  ret i64 %15
}

; Function Attrs: mustprogress nounwind uwtable
define linkonce_odr noundef zeroext i1 @_ZNK7glslang10TPpContext11TokenStream5Token6isAtomEi(ptr noundef nonnull align 8 dereferenceable(56) %0, i32 noundef %1) #0 comdat align 2 {
  %3 = alloca ptr, align 8
  %4 = alloca i32, align 4
  store ptr %0, ptr %3, align 8
  store i32 %1, ptr %4, align 4
  %5 = load ptr, ptr %3, align 8
  %6 = getelementptr inbounds %"class.glslang::TPpContext::TokenStream::Token", ptr %5, i32 0, i32 0
  %7 = load i32, ptr %6, align 8
  %8 = load i32, ptr %4, align 4
  %9 = icmp eq i32 %7, %8
  ret i1 %9
}

; Function Attrs: mustprogress nounwind uwtable
define linkonce_odr noundef nonnull align 8 dereferenceable(56) ptr @_ZNSt6vectorIN7glslang10TPpContext11TokenStream5TokenENS0_14pool_allocatorIS3_EEEixEm(ptr noundef nonnull align 8 dereferenceable(32) %0, i64 noundef %1) #0 comdat align 2 {
  %3 = alloca ptr, align 8
  %4 = alloca i64, align 8
  store ptr %0, ptr %3, align 8
  store i64 %1, ptr %4, align 8
  %5 = load ptr, ptr %3, align 8
  %6 = getelementptr inbounds %"struct.std::_Vector_base", ptr %5, i32 0, i32 0
  %7 = getelementptr inbounds i8, ptr %6, i64 8
  %8 = getelementptr inbounds %"struct.std::_Vector_base<glslang::TPpContext::TokenStream::Token, glslang::pool_allocator<glslang::TPpContext::TokenStream::Token>>::_Vector_impl_data", ptr %7, i32 0, i32 0
  %9 = load ptr, ptr %8, align 8
  %10 = load i64, ptr %4, align 8
  %11 = getelementptr inbounds %"class.glslang::TPpContext::TokenStream::Token", ptr %9, i64 %10
  ret ptr %11
}

; Function Attrs: mustprogress nounwind uwtable
define linkonce_odr noundef zeroext i1 @_ZN7glslang10TPpContext11TokenStream5atEndEv(ptr noundef nonnull align 8 dereferenceable(40) %0) #0 comdat align 2 {
  %2 = alloca ptr, align 8
  store ptr %0, ptr %2, align 8
  %3 = load ptr, ptr %2, align 8
  %4 = getelementptr inbounds %"class.glslang::TPpContext::TokenStream", ptr %3, i32 0, i32 1
  %5 = load i64, ptr %4, align 8
  %6 = getelementptr inbounds %"class.glslang::TPpContext::TokenStream", ptr %3, i32 0, i32 0
  %7 = call noundef i64 @_ZNKSt6vectorIN7glslang10TPpContext11TokenStream5TokenENS0_14pool_allocatorIS3_EEE4sizeEv(ptr noundef nonnull align 8 dereferenceable(32) %6) #8
  %8 = icmp uge i64 %5, %7
  ret i1 %8
}

; Function Attrs: mustprogress nounwind uwtable
define linkonce_odr noundef zeroext i1 @_ZN7glslang10TPpContext11TokenStream9peekTokenEi(ptr noundef nonnull align 8 dereferenceable(40) %0, i32 noundef %1) #0 comdat align 2 {
  %3 = alloca ptr, align 8
  %4 = alloca i32, align 4
  store ptr %0, ptr %3, align 8
  store i32 %1, ptr %4, align 4
  %5 = load ptr, ptr %3, align 8
  %6 = call noundef zeroext i1 @_ZN7glslang10TPpContext11TokenStream5atEndEv(ptr noundef nonnull align 8 dereferenceable(40) %5)
  br i1 %6, label %14, label %7

7:                                                ; preds = %2
  %8 = getelementptr inbounds %"class.glslang::TPpContext::TokenStream", ptr %5, i32 0, i32 0
  %9 = getelementptr inbounds %"class.glslang::TPpContext::TokenStream", ptr %5, i32 0, i32 1
  %10 = load i64, ptr %9, align 8
  %11 = call noundef nonnull align 8 dereferenceable(56) ptr @_ZNSt6vectorIN7glslang10TPpContext11TokenStream5TokenENS0_14pool_allocatorIS3_EEEixEm(ptr noundef nonnull align 8 dereferenceable(32) %8, i64 noundef %10) #8
  %12 = load i32, ptr %4, align 4
  %13 = call noundef zeroext i1 @_ZNK7glslang10TPpContext11TokenStream5Token6isAtomEi(ptr noundef nonnull align 8 dereferenceable(56) %11, i32 noundef %12)
  br label %14

14:                                               ; preds = %7, %2
  %15 = phi i1 [ false, %2 ], [ %13, %7 ]
  ret i1 %15
}

; Function Attrs: mustprogress nounwind uwtable
define noundef zeroext i1 @_ZN7glslang10TPpContext11TokenStream20peekTokenizedPastingEb(ptr noundef nonnull align 8 dereferenceable(40) %0, i1 noundef zeroext %1) #0 align 2 {
  %3 = alloca i1, align 1
  %4 = alloca ptr, align 8
  %5 = alloca i8, align 1
  %6 = alloca i64, align 8
  %7 = alloca i8, align 1
  store ptr %0, ptr %4, align 8
  %8 = zext i1 %1 to i8
  store i8 %8, ptr %5, align 1
  %9 = load ptr, ptr %4, align 8
  %10 = getelementptr inbounds %"class.glslang::TPpContext::TokenStream", ptr %9, i32 0, i32 1
  %11 = load i64, ptr %10, align 8
  store i64 %11, ptr %6, align 8
  br label %12

12:                                               ; preds = %14, %2
  %13 = call noundef zeroext i1 @_ZN7glslang10TPpContext11TokenStream9peekTokenEi(ptr noundef nonnull align 8 dereferenceable(40) %9, i32 noundef 32)
  br i1 %13, label %14, label %18

14:                                               ; preds = %12
  %15 = getelementptr inbounds %"class.glslang::TPpContext::TokenStream", ptr %9, i32 0, i32 1
  %16 = load i64, ptr %15, align 8
  %17 = add i64 %16, 1
  store i64 %17, ptr %15, align 8
  br label %12, !llvm.loop !4

18:                                               ; preds = %12
  %19 = call noundef zeroext i1 @_ZN7glslang10TPpContext11TokenStream9peekTokenEi(ptr noundef nonnull align 8 dereferenceable(40) %9, i32 noundef 151)
  br i1 %19, label %20, label %23

20:                                               ; preds = %18
  %21 = load i64, ptr %6, align 8
  %22 = getelementptr inbounds %"class.glslang::TPpContext::TokenStream", ptr %9, i32 0, i32 1
  store i64 %21, ptr %22, align 8
  store i1 true, ptr %3, align 1
  br label %47

23:                                               ; preds = %18
  %24 = load i8, ptr %5, align 1
  %25 = trunc i8 %24 to i1
  br i1 %25, label %27, label %26

26:                                               ; preds = %23
  store i1 false, ptr %3, align 1
  br label %47

27:                                               ; preds = %23
  %28 = getelementptr inbounds %"class.glslang::TPpContext::TokenStream", ptr %9, i32 0, i32 1
  %29 = load i64, ptr %28, align 8
  store i64 %29, ptr %6, align 8
  store i8 0, ptr %7, align 1
  br label %30

30:                                               ; preds = %40, %27
  %31 = call noundef zeroext i1 @_ZN7glslang10TPpContext11TokenStream5atEndEv(ptr noundef nonnull align 8 dereferenceable(40) %9)
  br i1 %31, label %32, label %33

32:                                               ; preds = %30
  br label %41

33:                                               ; preds = %30
  %34 = call noundef zeroext i1 @_ZN7glslang10TPpContext11TokenStream9peekTokenEi(ptr noundef nonnull align 8 dereferenceable(40) %9, i32 noundef 32)
  br i1 %34, label %36, label %35

35:                                               ; preds = %33
  store i8 1, ptr %7, align 1
  br label %41

36:                                               ; preds = %33
  %37 = getelementptr inbounds %"class.glslang::TPpContext::TokenStream", ptr %9, i32 0, i32 1
  %38 = load i64, ptr %37, align 8
  %39 = add i64 %38, 1
  store i64 %39, ptr %37, align 8
  br label %40

40:                                               ; preds = %36
  br i1 true, label %30, label %41, !llvm.loop !6

41:                                               ; preds = %40, %35, %32
  %42 = load i64, ptr %6, align 8
  %43 = getelementptr inbounds %"class.glslang::TPpContext::TokenStream", ptr %9, i32 0, i32 1
  store i64 %42, ptr %43, align 8
  %44 = load i8, ptr %7, align 1
  %45 = trunc i8 %44 to i1
  %46 = xor i1 %45, true
  store i1 %46, ptr %3, align 1
  br label %47

47:                                               ; preds = %41, %26, %20
  %48 = load i1, ptr %3, align 1
  ret i1 %48
}