; Function Attrs: mustprogress nofree norecurse nosync nounwind memory(read, argmem: readwrite, inaccessiblemem: none) uwtable
define noundef zeroext i1 @_ZN7glslang10TPpContext11TokenStream20peekTokenizedPastingEb(ptr noundef nonnull align 8 captures(none) dereferenceable(40) %0, i1 noundef zeroext %1) local_unnamed_addr #3 align 2 {
  %3 = getelementptr inbounds nuw i8, ptr %0, i64 32
  %4 = load i64, ptr %3, align 8
  %5 = getelementptr inbounds nuw i8, ptr %0, i64 8
  %6 = getelementptr inbounds nuw i8, ptr %0, i64 16
  %7 = load ptr, ptr %6, align 8
  %8 = load ptr, ptr %5, align 8
  %9 = ptrtoint ptr %7 to i64
  %10 = ptrtoint ptr %8 to i64
  %11 = sub i64 %9, %10
  %12 = sdiv exact i64 %11, 56
  %.not.i16 = icmp ult i64 %4, %12
  br i1 %.not.i16, label %_ZN7glslang10TPpContext11TokenStream9peekTokenEi.exit, label %_ZN7glslang10TPpContext11TokenStream9peekTokenEi.exit7.thread

_ZN7glslang10TPpContext11TokenStream9peekTokenEi.exit: ; preds = %2, %16
  %13 = phi i64 [ %17, %16 ], [ %4, %2 ]
  %14 = getelementptr inbounds %"class.glslang::TPpContext::TokenStream::Token", ptr %8, i64 %13
  %15 = load i32, ptr %14, align 8
  switch i32 %15, label %_ZN7glslang10TPpContext11TokenStream9peekTokenEi.exit7.thread [
    i32 32, label %16
    i32 151, label %.sink.split
  ]

16:                                               ; preds = %_ZN7glslang10TPpContext11TokenStream9peekTokenEi.exit
  %17 = add i64 %13, 1
  store i64 %17, ptr %3, align 8
  %exitcond.not = icmp eq i64 %17, %12
  br i1 %exitcond.not, label %_ZN7glslang10TPpContext11TokenStream9peekTokenEi.exit7.thread, label %_ZN7glslang10TPpContext11TokenStream9peekTokenEi.exit, !llvm.loop !13

_ZN7glslang10TPpContext11TokenStream9peekTokenEi.exit7.thread: ; preds = %16, %_ZN7glslang10TPpContext11TokenStream9peekTokenEi.exit, %2
  %.promoted19 = phi i64 [ %4, %2 ], [ %12, %16 ], [ %13, %_ZN7glslang10TPpContext11TokenStream9peekTokenEi.exit ]
  br i1 %1, label %.preheader, label %24

.preheader:                                       ; preds = %_ZN7glslang10TPpContext11TokenStream9peekTokenEi.exit7.thread
  %.not = icmp ult i64 %.promoted19, %12
  br i1 %.not, label %_ZN7glslang10TPpContext11TokenStream9peekTokenEi.exit9, label %.sink.split

_ZN7glslang10TPpContext11TokenStream9peekTokenEi.exit9: ; preds = %.preheader, %22
  %18 = phi i64 [ %23, %22 ], [ %.promoted19, %.preheader ]
  %19 = getelementptr inbounds %"class.glslang::TPpContext::TokenStream::Token", ptr %8, i64 %18
  %20 = load i32, ptr %19, align 8
  %21 = icmp eq i32 %20, 32
  br i1 %21, label %22, label %.sink.split

22:                                               ; preds = %_ZN7glslang10TPpContext11TokenStream9peekTokenEi.exit9
  %23 = add i64 %18, 1
  store i64 %23, ptr %3, align 8
  %exitcond26.not = icmp eq i64 %23, %12
  br i1 %exitcond26.not, label %.sink.split, label %_ZN7glslang10TPpContext11TokenStream9peekTokenEi.exit9, !llvm.loop !15

.sink.split:                                      ; preds = %_ZN7glslang10TPpContext11TokenStream9peekTokenEi.exit, %_ZN7glslang10TPpContext11TokenStream9peekTokenEi.exit9, %22, %.preheader
  %.promoted19.sink = phi i64 [ %.promoted19, %.preheader ], [ %.promoted19, %22 ], [ %.promoted19, %_ZN7glslang10TPpContext11TokenStream9peekTokenEi.exit9 ], [ %4, %_ZN7glslang10TPpContext11TokenStream9peekTokenEi.exit ]
  %.05.ph = phi i1 [ true, %.preheader ], [ %21, %22 ], [ %21, %_ZN7glslang10TPpContext11TokenStream9peekTokenEi.exit9 ], [ true, %_ZN7glslang10TPpContext11TokenStream9peekTokenEi.exit ]
  store i64 %.promoted19.sink, ptr %3, align 8
  br label %24

24:                                               ; preds = %.sink.split, %_ZN7glslang10TPpContext11TokenStream9peekTokenEi.exit7.thread
  %.05 = phi i1 [ false, %_ZN7glslang10TPpContext11TokenStream9peekTokenEi.exit7.thread ], [ %.05.ph, %.sink.split ]
  ret i1 %.05
}